; Function Attrs: mustprogress uwtable
define noundef ptr @_ZN6icu_758ZoneMeta10getShortIDERKNS_13UnicodeStringE(ptr noundef nonnull align 8 dereferenceable(64) %id) local_unnamed_addr #0 align 2 {
entry:
  %status = alloca i32, align 4
  store i32 0, ptr %status, align 4
  %call = call noundef ptr @_ZN6icu_758ZoneMeta18getCanonicalCLDRIDERKNS_13UnicodeStringER10UErrorCode(ptr noundef nonnull align 8 dereferenceable(64) %id, ptr noundef nonnull align 4 dereferenceable(4) %status)
  %0 = load i32, ptr %status, align 4
  %cmp.i = icmp sgt i32 %0, 0
  %cmp = icmp eq ptr %call, null
  %or.cond = or i1 %cmp, %cmp.i
  br i1 %or.cond, label %return, label %if.end

if.end:                                           ; preds = %entry
  %call2 = call noundef ptr @_ZN6icu_758ZoneMeta23getShortIDFromCanonicalEPKDs(ptr noundef nonnull %call)
  br label %return

return:                                           ; preds = %entry, %if.end
  %retval.0 = phi ptr [ %call2, %if.end ], [ null, %entry ]
  ret ptr %retval.0
}